target datalayout = "e-m:e-p270:32:32-p271:32:32-p272:64:64-i64:64-i128:128-f80:128-n8:16:32:64-S128"
target triple = "x86_64-pc-linux-gnu"

@.str.1 = private unnamed_addr constant [13 x i8] c"auth-scram.c\00", align 1
@.str.11 = private unnamed_addr constant [24 x i8] c"malformed SCRAM message\00", align 1
@.str.29 = private unnamed_addr constant [40 x i8] c"Expected attribute \22%c\22 but found \22%s\22.\00", align 1
@__func__.read_attr_value = private unnamed_addr constant [16 x i8] c"read_attr_value\00", align 1
@.str.30 = private unnamed_addr constant [43 x i8] c"Expected character \22=\22 for attribute \22%c\22.\00", align 1

; Function Attrs: nounwind uwtable
define internal ptr @read_attr_value(ptr noundef %0, i8 noundef signext %1) #0 {
  %3 = alloca ptr, align 8
  %4 = alloca i8, align 1
  %5 = alloca ptr, align 8
  %6 = alloca ptr, align 8
  store ptr %0, ptr %3, align 8
  store i8 %1, ptr %4, align 1
  call void @llvm.lifetime.start.p0(i64 8, ptr %5) #9
  %7 = load ptr, ptr %3, align 8
  %8 = load ptr, ptr %7, align 8
  store ptr %8, ptr %5, align 8
  call void @llvm.lifetime.start.p0(i64 8, ptr %6) #9
  %9 = load ptr, ptr %5, align 8
  %10 = load i8, ptr %9, align 1
  %11 = sext i8 %10 to i32
  %12 = load i8, ptr %4, align 1
  %13 = sext i8 %12 to i32
  %14 = icmp ne i32 %11, %13
  br i1 %14, label %15, label %33

15:                                               ; preds = %2
  br label %16

16:                                               ; preds = %15
  br i1 true, label %17, label %19

17:                                               ; preds = %16
  %18 = call zeroext i1 @errstart_cold(i32 noundef 21, ptr noundef null) #11
  br i1 %18, label %21, label %30

19:                                               ; preds = %16
  %20 = call zeroext i1 @errstart(i32 noundef 21, ptr noundef null)
  br i1 %20, label %21, label %30

21:                                               ; preds = %19, %17
  %22 = call i32 @errcode(i32 noundef 16908800)
  %23 = call i32 (ptr, ...) @errmsg(ptr noundef @.str.11)
  %24 = load i8, ptr %4, align 1
  %25 = sext i8 %24 to i32
  %26 = load ptr, ptr %5, align 8
  %27 = load i8, ptr %26, align 1
  %28 = call ptr @sanitize_char(i8 noundef signext %27)
  %29 = call i32 (ptr, ...) @errdetail(ptr noundef @.str.29, i32 noundef %25, ptr noundef %28)
  call void @errfinish(ptr noundef @.str.1, i32 noundef 753, ptr noundef @__func__.read_attr_value)
  br label %30

30:                                               ; preds = %21, %19, %17
  unreachable

31:                                               ; No predecessors!
  br label %32

32:                                               ; preds = %31
  br label %33

33:                                               ; preds = %32, %2
  %34 = load ptr, ptr %5, align 8
  %35 = getelementptr inbounds nuw i8, ptr %34, i32 1
  store ptr %35, ptr %5, align 8
  %36 = load ptr, ptr %5, align 8
  %37 = load i8, ptr %36, align 1
  %38 = sext i8 %37 to i32
  %39 = icmp ne i32 %38, 61
  br i1 %39, label %40, label %55

40:                                               ; preds = %33
  br label %41

41:                                               ; preds = %40
  br i1 true, label %42, label %44

42:                                               ; preds = %41
  %43 = call zeroext i1 @errstart_cold(i32 noundef 21, ptr noundef null) #11
  br i1 %43, label %46, label %52

44:                                               ; preds = %41
  %45 = call zeroext i1 @errstart(i32 noundef 21, ptr noundef null)
  br i1 %45, label %46, label %52

46:                                               ; preds = %44, %42
  %47 = call i32 @errcode(i32 noundef 16908800)
  %48 = call i32 (ptr, ...) @errmsg(ptr noundef @.str.11)
  %49 = load i8, ptr %4, align 1
  %50 = sext i8 %49 to i32
  %51 = call i32 (ptr, ...) @errdetail(ptr noundef @.str.30, i32 noundef %50)
  call void @errfinish(ptr noundef @.str.1, i32 noundef 760, ptr noundef @__func__.read_attr_value)
  br label %52

52:                                               ; preds = %46, %44, %42
  unreachable

53:                                               ; No predecessors!
  br label %54

54:                                               ; preds = %53
  br label %55

55:                                               ; preds = %54, %33
  %56 = load ptr, ptr %5, align 8
  %57 = getelementptr inbounds nuw i8, ptr %56, i32 1
  store ptr %57, ptr %5, align 8
  %58 = load ptr, ptr %5, align 8
  store ptr %58, ptr %6, align 8
  br label %59

59:                                               ; preds = %71, %55
  %60 = load ptr, ptr %6, align 8
  %61 = load i8, ptr %60, align 1
  %62 = sext i8 %61 to i32
  %63 = icmp ne i32 %62, 0
  br i1 %63, label %64, label %69

64:                                               ; preds = %59
  %65 = load ptr, ptr %6, align 8
  %66 = load i8, ptr %65, align 1
  %67 = sext i8 %66 to i32
  %68 = icmp ne i32 %67, 44
  br label %69

69:                                               ; preds = %64, %59
  %70 = phi i1 [ false, %59 ], [ %68, %64 ]
  br i1 %70, label %71, label %74

71:                                               ; preds = %69
  %72 = load ptr, ptr %6, align 8
  %73 = getelementptr inbounds nuw i8, ptr %72, i32 1
  store ptr %73, ptr %6, align 8
  br label %59, !llvm.loop !10

74:                                               ; preds = %69
  %75 = load ptr, ptr %6, align 8
  %76 = load i8, ptr %75, align 1
  %77 = icmp ne i8 %76, 0
  br i1 %77, label %78, label %83

78:                                               ; preds = %74
  %79 = load ptr, ptr %6, align 8
  store i8 0, ptr %79, align 1
  %80 = load ptr, ptr %6, align 8
  %81 = getelementptr inbounds i8, ptr %80, i64 1
  %82 = load ptr, ptr %3, align 8
  store ptr %81, ptr %82, align 8
  br label %86

83:                                               ; preds = %74
  %84 = load ptr, ptr %6, align 8
  %85 = load ptr, ptr %3, align 8
  store ptr %84, ptr %85, align 8
  br label %86

86:                                               ; preds = %83, %78
  %87 = load ptr, ptr %5, align 8
  call void @llvm.lifetime.end.p0(i64 8, ptr %6) #9
  call void @llvm.lifetime.end.p0(i64 8, ptr %5) #9
  ret ptr %87
}