; Function Attrs: nounwind uwtable
define internal fastcc nonnull ptr @read_attr_value(ptr noundef nonnull captures(none) %0, i8 noundef signext range(i8 99, 115) %1) unnamed_addr #0 {
  %3 = load ptr, ptr %0, align 8
  %4 = load i8, ptr %3, align 1
  %5 = zext nneg i8 %1 to i32
  %.not = icmp eq i8 %4, %1
  br i1 %.not, label %12, label %6

6:                                                ; preds = %2
  %7 = tail call zeroext i1 @errstart_cold(i32 noundef 21, ptr noundef null) #15
  tail call void @llvm.assume(i1 %7)
  %8 = tail call i32 @errcode(i32 noundef 16908800) #13
  %9 = tail call i32 (ptr, ...) @errmsg(ptr noundef nonnull @.str.11) #13
  %10 = load i8, ptr %3, align 1
  tail call fastcc void @sanitize_char(i8 noundef signext %10)
  %11 = tail call i32 (ptr, ...) @errdetail(ptr noundef nonnull @.str.29, i32 noundef %5, ptr noundef nonnull @sanitize_char.buf) #13
  tail call void @errfinish(ptr noundef nonnull @.str.1, i32 noundef 753, ptr noundef nonnull @__func__.read_attr_value) #13
  unreachable

12:                                               ; preds = %2
  %13 = getelementptr inbounds nuw i8, ptr %3, i64 1
  %14 = load i8, ptr %13, align 1
  %.not21 = icmp eq i8 %14, 61
  br i1 %.not21, label %20, label %15

15:                                               ; preds = %12
  %16 = tail call zeroext i1 @errstart_cold(i32 noundef 21, ptr noundef null) #15
  tail call void @llvm.assume(i1 %16)
  %17 = tail call i32 @errcode(i32 noundef 16908800) #13
  %18 = tail call i32 (ptr, ...) @errmsg(ptr noundef nonnull @.str.11) #13
  %19 = tail call i32 (ptr, ...) @errdetail(ptr noundef nonnull @.str.30, i32 noundef %5) #13
  tail call void @errfinish(ptr noundef nonnull @.str.1, i32 noundef 760, ptr noundef nonnull @__func__.read_attr_value) #13
  unreachable

20:                                               ; preds = %12
  %21 = getelementptr inbounds nuw i8, ptr %3, i64 2
  br label %22

22:                                               ; preds = %24, %20
  %.0 = phi ptr [ %21, %20 ], [ %25, %24 ]
  %23 = load i8, ptr %.0, align 1
  switch i8 %23, label %24 [
    i8 0, label %.loopexit
    i8 44, label %26
  ]

24:                                               ; preds = %22
  %25 = getelementptr inbounds nuw i8, ptr %.0, i64 1
  br label %22, !llvm.loop !11

26:                                               ; preds = %22
  store i8 0, ptr %.0, align 1
  %27 = getelementptr inbounds nuw i8, ptr %.0, i64 1
  br label %.loopexit

.loopexit:                                        ; preds = %22, %26
  %storemerge = phi ptr [ %27, %26 ], [ %.0, %22 ]
  store ptr %storemerge, ptr %0, align 8
  ret ptr %21
}